; Function Attrs: mustprogress uwtable
define void @_ZNK24DecorateRasterProjPlugin14decorationInfoEi(ptr dead_on_unwind noalias writable sret(%class.QString) align 8 %0, ptr nocapture noundef nonnull readnone align 8 dereferenceable(440) %1, i32 noundef %2) unnamed_addr #9 align 2 {
  %cond = icmp eq i32 %2, 0
  br i1 %cond, label %4, label %5

4:                                                ; preds = %3
  tail call void @_ZNK11QMetaObject2trEPKcS1_i(ptr dead_on_unwind writable sret(%class.QString) align 8 %0, ptr noundef nonnull align 8 dereferenceable(48) @_ZN24DecorateRasterProjPlugin16staticMetaObjectE, ptr noundef nonnull @.str.12, ptr noundef null, i32 noundef -1)
  br label %6

5:                                                ; preds = %3
  store ptr @_ZN10QArrayData11shared_nullE, ptr %0, align 8
  br label %6

6:                                                ; preds = %5, %4
  ret void
}